target datalayout = "e-m:e-p270:32:32-p271:32:32-p272:64:64-i64:64-i128:128-f80:128-n8:16:32:64-S128"
target triple = "x86_64-pc-linux-gnu"

%struct.construct_data_st = type { ptr, ptr, i32, i32, ptr, ptr }
%struct.ossl_method_construct_method_st = type { ptr, ptr, ptr, ptr, ptr, ptr, ptr }

; Function Attrs: nounwind uwtable
define internal i32 @ossl_method_construct_unreserve_store(ptr noundef %0) #0 {
  %2 = alloca ptr, align 8
  %3 = alloca ptr, align 8
  store ptr %0, ptr %2, align 8, !tbaa !14
  call void @llvm.lifetime.start.p0(i64 8, ptr %3) #4
  %4 = load ptr, ptr %2, align 8, !tbaa !14
  store ptr %4, ptr %3, align 8, !tbaa !27
  %5 = load ptr, ptr %3, align 8, !tbaa !27
  %6 = getelementptr inbounds nuw %struct.construct_data_st, ptr %5, i32 0, i32 4
  %7 = load ptr, ptr %6, align 8, !tbaa !21
  %8 = getelementptr inbounds nuw %struct.ossl_method_construct_method_st, ptr %7, i32 0, i32 2
  %9 = load ptr, ptr %8, align 8, !tbaa !41
  %10 = load ptr, ptr %3, align 8, !tbaa !27
  %11 = getelementptr inbounds nuw %struct.construct_data_st, ptr %10, i32 0, i32 1
  %12 = load ptr, ptr %11, align 8, !tbaa !17
  %13 = load ptr, ptr %3, align 8, !tbaa !27
  %14 = getelementptr inbounds nuw %struct.construct_data_st, ptr %13, i32 0, i32 5
  %15 = load ptr, ptr %14, align 8, !tbaa !22
  %16 = call i32 %9(ptr noundef %12, ptr noundef %15)
  call void @llvm.lifetime.end.p0(i64 8, ptr %3) #4
  ret i32 %16
}