; Function Attrs: nounwind uwtable
define internal i32 @ossl_method_construct_unreserve_store(ptr noundef readonly captures(none) %0) #0 {
  %2 = getelementptr inbounds nuw i8, ptr %0, i64 24
  %3 = load ptr, ptr %2, align 8, !tbaa !15
  %4 = getelementptr inbounds nuw i8, ptr %3, i64 16
  %5 = load ptr, ptr %4, align 8, !tbaa !31
  %6 = getelementptr inbounds nuw i8, ptr %0, i64 8
  %7 = load ptr, ptr %6, align 8, !tbaa !8
  %8 = getelementptr inbounds nuw i8, ptr %0, i64 32
  %9 = load ptr, ptr %8, align 8, !tbaa !16
  %10 = tail call i32 %5(ptr noundef %7, ptr noundef %9) #3
  ret i32 %10
}